; Function Attrs: mustprogress uwtable
define void @_ZN7rocksdb15DBLoaderCommand19OverrideBaseOptionsEv(ptr noundef nonnull align 8 dereferenceable(2211) initializes((512, 513)) %0) unnamed_addr #5 align 2 {
  tail call void @_ZN7rocksdb10LDBCommand19OverrideBaseOptionsEv(ptr noundef nonnull align 8 dereferenceable(2208) %0)
  %2 = getelementptr inbounds nuw i8, ptr %0, i64 361
  %3 = load i8, ptr %2, align 1, !tbaa !372, !range !303, !noundef !304
  %4 = getelementptr inbounds nuw i8, ptr %0, i64 512
  store i8 %3, ptr %4, align 8, !tbaa !448
  %5 = getelementptr inbounds nuw i8, ptr %0, i64 2209
  %6 = load i8, ptr %5, align 1, !tbaa !723, !range !303, !noundef !304
  %7 = trunc nuw i8 %6 to i1
  br i1 %7, label %8, label %10

8:                                                ; preds = %1
  %9 = tail call noundef ptr @_ZN7rocksdb7Options18PrepareForBulkLoadEv(ptr noundef nonnull align 8 dereferenceable(1544) %4)
  br label %10

10:                                               ; preds = %8, %1
  ret void
}